; Function Attrs: nounwind uwtable
define ptr @l___private_Lean_Elab_SyntheticMVars_0__Lean_Elab_Term_synthesizeUsingDefaultPrio_synthesizeUsingDefaultInstance(ptr noundef %0, ptr noundef %1, ptr noundef %2, ptr noundef %3, ptr noundef %4, ptr noundef %5, ptr noundef %6, ptr noundef %7, ptr noundef %8) local_unnamed_addr #0 {
  tail call void @lean_inc_heartbeat() #7
  %10 = tail call noalias ptr @mi_malloc_small(i64 noundef 40) #7
  %11 = icmp eq ptr %10, null
  br i1 %11, label %12, label %lean_alloc_closure.exit

12:                                               ; preds = %9
  tail call void @lean_internal_panic_out_of_memory() #8
  unreachable

lean_alloc_closure.exit:                          ; preds = %9
  %13 = getelementptr inbounds nuw i8, ptr %10, i64 4
  store i32 1, ptr %10, align 4, !tbaa !7
  store i32 -184549336, ptr %13, align 4
  %14 = getelementptr inbounds nuw i8, ptr %10, i64 8
  store ptr @l___private_Lean_Elab_SyntheticMVars_0__Lean_Elab_Term_synthesizeUsingDefaultPrio_synthesizeUsingDefaultInstance___lambda__3, ptr %14, align 8, !tbaa !10
  %15 = getelementptr inbounds nuw i8, ptr %10, i64 16
  store i16 9, ptr %15, align 8, !tbaa !17
  %16 = getelementptr inbounds nuw i8, ptr %10, i64 18
  store i16 2, ptr %16, align 2, !tbaa !17
  %17 = getelementptr inbounds nuw i8, ptr %10, i64 24
  store ptr %1, ptr %17, align 8, !tbaa !10
  %18 = getelementptr inbounds nuw i8, ptr %10, i64 32
  store ptr %0, ptr %18, align 8, !tbaa !10
  %19 = tail call ptr @l_Lean_commitWhen___at___private_Lean_Elab_SyntheticMVars_0__Lean_Elab_Term_synthesizeUsingDefaultPrio_synthesizePendingInstMVar_x27___spec__1(ptr noundef nonnull %10, ptr noundef %2, ptr noundef %3, ptr noundef %4, ptr noundef %5, ptr noundef %6, ptr noundef %7, ptr noundef %8)
  ret ptr %19
}